target datalayout = "e-m:e-p270:32:32-p271:32:32-p272:64:64-i64:64-i128:128-f80:128-n8:16:32:64-S128"
target triple = "x86_64-pc-linux-gnu"

%struct.QuadTree_struct = type { i32, double, i32, ptr, double, ptr, ptr, ptr, i32, ptr }
%struct.node_data_struct = type { double, ptr, i32, ptr, ptr }

; Function Attrs: nounwind uwtable
define internal ptr @get_or_assign_node_force(ptr noundef %0, i32 noundef %1, ptr noundef %2, i32 noundef %3) #0 {
  %5 = alloca ptr, align 8
  %6 = alloca i32, align 4
  %7 = alloca ptr, align 8
  %8 = alloca i32, align 4
  %9 = alloca ptr, align 8
  store ptr %0, ptr %5, align 8, !tbaa !10
  store i32 %1, ptr %6, align 4, !tbaa !12
  store ptr %2, ptr %7, align 8, !tbaa !28
  store i32 %3, ptr %8, align 4, !tbaa !12
  call void @llvm.lifetime.start.p0(i64 8, ptr %9) #11
  %10 = load ptr, ptr %7, align 8, !tbaa !28
  %11 = getelementptr inbounds nuw %struct.node_data_struct, ptr %10, i32 0, i32 3
  %12 = load ptr, ptr %11, align 8, !tbaa !90
  store ptr %12, ptr %9, align 8, !tbaa !10
  %13 = load ptr, ptr %9, align 8, !tbaa !10
  %14 = icmp ne ptr %13, null
  br i1 %14, label %27, label %15

15:                                               ; preds = %4
  %16 = load ptr, ptr %5, align 8, !tbaa !10
  %17 = load i32, ptr %6, align 4, !tbaa !12
  %18 = load i32, ptr %8, align 4, !tbaa !12
  %19 = mul nsw i32 %17, %18
  %20 = sext i32 %19 to i64
  %21 = getelementptr inbounds double, ptr %16, i64 %20
  %22 = load ptr, ptr %7, align 8, !tbaa !28
  %23 = getelementptr inbounds nuw %struct.node_data_struct, ptr %22, i32 0, i32 3
  store ptr %21, ptr %23, align 8, !tbaa !90
  %24 = load ptr, ptr %7, align 8, !tbaa !28
  %25 = getelementptr inbounds nuw %struct.node_data_struct, ptr %24, i32 0, i32 3
  %26 = load ptr, ptr %25, align 8, !tbaa !90
  store ptr %26, ptr %9, align 8, !tbaa !10
  br label %27

27:                                               ; preds = %15, %4
  %28 = load ptr, ptr %9, align 8, !tbaa !10
  call void @llvm.lifetime.end.p0(i64 8, ptr %9) #11
  ret ptr %28
}

; Function Attrs: nounwind uwtable
define internal void @QuadTree_repulsive_force_accumulate(ptr noundef %0, ptr noundef %1, ptr noundef %2) #0 {
  %4 = alloca ptr, align 8
  %5 = alloca ptr, align 8
  %6 = alloca ptr, align 8
  %7 = alloca double, align 8
  %8 = alloca double, align 8
  %9 = alloca ptr, align 8
  %10 = alloca ptr, align 8
  %11 = alloca ptr, align 8
  %12 = alloca i32, align 4
  %13 = alloca i32, align 4
  %14 = alloca i32, align 4
  %15 = alloca ptr, align 8
  %16 = alloca i32, align 4
  store ptr %0, ptr %4, align 8, !tbaa !3
  store ptr %1, ptr %5, align 8, !tbaa !10
  store ptr %2, ptr %6, align 8, !tbaa !10
  call void @llvm.lifetime.start.p0(i64 8, ptr %7) #11
  call void @llvm.lifetime.start.p0(i64 8, ptr %8) #11
  call void @llvm.lifetime.start.p0(i64 8, ptr %9) #11
  call void @llvm.lifetime.start.p0(i64 8, ptr %10) #11
  call void @llvm.lifetime.start.p0(i64 8, ptr %11) #11
  %17 = load ptr, ptr %4, align 8, !tbaa !3
  %18 = getelementptr inbounds nuw %struct.QuadTree_struct, ptr %17, i32 0, i32 7
  %19 = load ptr, ptr %18, align 8, !tbaa !27
  store ptr %19, ptr %11, align 8, !tbaa !28
  call void @llvm.lifetime.start.p0(i64 4, ptr %12) #11
  call void @llvm.lifetime.start.p0(i64 4, ptr %13) #11
  call void @llvm.lifetime.start.p0(i64 4, ptr %14) #11
  call void @llvm.lifetime.start.p0(i64 8, ptr %15) #11
  %20 = load ptr, ptr %4, align 8, !tbaa !3
  %21 = getelementptr inbounds nuw %struct.QuadTree_struct, ptr %20, i32 0, i32 2
  %22 = load i32, ptr %21, align 8, !tbaa !18
  store i32 %22, ptr %14, align 4, !tbaa !12
  %23 = load ptr, ptr %4, align 8, !tbaa !3
  %24 = getelementptr inbounds nuw %struct.QuadTree_struct, ptr %23, i32 0, i32 1
  %25 = load double, ptr %24, align 8, !tbaa !42
  store double %25, ptr %7, align 8, !tbaa !8
  %26 = load ptr, ptr %4, align 8, !tbaa !3
  %27 = load i32, ptr %14, align 4, !tbaa !12
  %28 = call ptr @get_or_alloc_force_qt(ptr noundef %26, i32 noundef %27)
  store ptr %28, ptr %9, align 8, !tbaa !10
  %29 = load ptr, ptr %6, align 8, !tbaa !10
  %30 = getelementptr inbounds double, ptr %29, i64 2
  %31 = load double, ptr %30, align 8, !tbaa !8
  %32 = fadd double %31, 1.000000e+00
  store double %32, ptr %30, align 8, !tbaa !8
  %33 = load ptr, ptr %11, align 8, !tbaa !28
  %34 = icmp ne ptr %33, null
  br i1 %34, label %35, label %79

35:                                               ; preds = %3
  br label %36

36:                                               ; preds = %74, %35
  %37 = load ptr, ptr %11, align 8, !tbaa !28
  %38 = icmp ne ptr %37, null
  br i1 %38, label %39, label %78

39:                                               ; preds = %36
  %40 = load ptr, ptr %11, align 8, !tbaa !28
  %41 = getelementptr inbounds nuw %struct.node_data_struct, ptr %40, i32 0, i32 2
  %42 = load i32, ptr %41, align 8, !tbaa !29
  store i32 %42, ptr %12, align 4, !tbaa !12
  %43 = load ptr, ptr %5, align 8, !tbaa !10
  %44 = load i32, ptr %12, align 4, !tbaa !12
  %45 = load ptr, ptr %11, align 8, !tbaa !28
  %46 = load i32, ptr %14, align 4, !tbaa !12
  %47 = call ptr @get_or_assign_node_force(ptr noundef %43, i32 noundef %44, ptr noundef %45, i32 noundef %46)
  store ptr %47, ptr %10, align 8, !tbaa !10
  %48 = load ptr, ptr %11, align 8, !tbaa !28
  %49 = getelementptr inbounds nuw %struct.node_data_struct, ptr %48, i32 0, i32 0
  %50 = load double, ptr %49, align 8, !tbaa !34
  store double %50, ptr %8, align 8, !tbaa !8
  %51 = load double, ptr %8, align 8, !tbaa !8
  %52 = load double, ptr %7, align 8, !tbaa !8
  %53 = fdiv double %51, %52
  store double %53, ptr %8, align 8, !tbaa !8
  store i32 0, ptr %13, align 4, !tbaa !12
  br label %54

54:                                               ; preds = %71, %39
  %55 = load i32, ptr %13, align 4, !tbaa !12
  %56 = load i32, ptr %14, align 4, !tbaa !12
  %57 = icmp slt i32 %55, %56
  br i1 %57, label %58, label %74

58:                                               ; preds = %54
  %59 = load double, ptr %8, align 8, !tbaa !8
  %60 = load ptr, ptr %9, align 8, !tbaa !10
  %61 = load i32, ptr %13, align 4, !tbaa !12
  %62 = sext i32 %61 to i64
  %63 = getelementptr inbounds double, ptr %60, i64 %62
  %64 = load double, ptr %63, align 8, !tbaa !8
  %65 = load ptr, ptr %10, align 8, !tbaa !10
  %66 = load i32, ptr %13, align 4, !tbaa !12
  %67 = sext i32 %66 to i64
  %68 = getelementptr inbounds double, ptr %65, i64 %67
  %69 = load double, ptr %68, align 8, !tbaa !8
  %70 = call double @llvm.fmuladd.f64(double %59, double %64, double %69)
  store double %70, ptr %68, align 8, !tbaa !8
  br label %71

71:                                               ; preds = %58
  %72 = load i32, ptr %13, align 4, !tbaa !12
  %73 = add nsw i32 %72, 1
  store i32 %73, ptr %13, align 4, !tbaa !12
  br label %54, !llvm.loop !58

74:                                               ; preds = %54
  %75 = load ptr, ptr %11, align 8, !tbaa !28
  %76 = getelementptr inbounds nuw %struct.node_data_struct, ptr %75, i32 0, i32 4
  %77 = load ptr, ptr %76, align 8, !tbaa !35
  store ptr %77, ptr %11, align 8, !tbaa !28
  br label %36, !llvm.loop !59

78:                                               ; preds = %36
  store i32 1, ptr %16, align 4
  br label %134

79:                                               ; preds = %3
  store i32 0, ptr %12, align 4, !tbaa !12
  br label %80

80:                                               ; preds = %130, %79
  %81 = load i32, ptr %12, align 4, !tbaa !12
  %82 = load i32, ptr %14, align 4, !tbaa !12
  %83 = shl i32 1, %82
  %84 = icmp slt i32 %81, %83
  br i1 %84, label %85, label %133

85:                                               ; preds = %80
  %86 = load ptr, ptr %4, align 8, !tbaa !3
  %87 = getelementptr inbounds nuw %struct.QuadTree_struct, ptr %86, i32 0, i32 6
  %88 = load ptr, ptr %87, align 8, !tbaa !37
  %89 = load i32, ptr %12, align 4, !tbaa !12
  %90 = sext i32 %89 to i64
  %91 = getelementptr inbounds ptr, ptr %88, i64 %90
  %92 = load ptr, ptr %91, align 8, !tbaa !3
  store ptr %92, ptr %15, align 8, !tbaa !3
  %93 = load ptr, ptr %15, align 8, !tbaa !3
  %94 = icmp ne ptr %93, null
  br i1 %94, label %96, label %95

95:                                               ; preds = %85
  br label %130

96:                                               ; preds = %85
  %97 = load ptr, ptr %15, align 8, !tbaa !3
  %98 = load i32, ptr %14, align 4, !tbaa !12
  %99 = call ptr @get_or_alloc_force_qt(ptr noundef %97, i32 noundef %98)
  store ptr %99, ptr %10, align 8, !tbaa !10
  %100 = load ptr, ptr %15, align 8, !tbaa !3
  %101 = getelementptr inbounds nuw %struct.QuadTree_struct, ptr %100, i32 0, i32 1
  %102 = load double, ptr %101, align 8, !tbaa !42
  store double %102, ptr %8, align 8, !tbaa !8
  %103 = load double, ptr %8, align 8, !tbaa !8
  %104 = load double, ptr %7, align 8, !tbaa !8
  %105 = fdiv double %103, %104
  store double %105, ptr %8, align 8, !tbaa !8
  store i32 0, ptr %13, align 4, !tbaa !12
  br label %106

106:                                              ; preds = %123, %96
  %107 = load i32, ptr %13, align 4, !tbaa !12
  %108 = load i32, ptr %14, align 4, !tbaa !12
  %109 = icmp slt i32 %107, %108
  br i1 %109, label %110, label %126

110:                                              ; preds = %106
  %111 = load double, ptr %8, align 8, !tbaa !8
  %112 = load ptr, ptr %9, align 8, !tbaa !10
  %113 = load i32, ptr %13, align 4, !tbaa !12
  %114 = sext i32 %113 to i64
  %115 = getelementptr inbounds double, ptr %112, i64 %114
  %116 = load double, ptr %115, align 8, !tbaa !8
  %117 = load ptr, ptr %10, align 8, !tbaa !10
  %118 = load i32, ptr %13, align 4, !tbaa !12
  %119 = sext i32 %118 to i64
  %120 = getelementptr inbounds double, ptr %117, i64 %119
  %121 = load double, ptr %120, align 8, !tbaa !8
  %122 = call double @llvm.fmuladd.f64(double %111, double %116, double %121)
  store double %122, ptr %120, align 8, !tbaa !8
  br label %123

123:                                              ; preds = %110
  %124 = load i32, ptr %13, align 4, !tbaa !12
  %125 = add nsw i32 %124, 1
  store i32 %125, ptr %13, align 4, !tbaa !12
  br label %106, !llvm.loop !60

126:                                              ; preds = %106
  %127 = load ptr, ptr %15, align 8, !tbaa !3
  %128 = load ptr, ptr %5, align 8, !tbaa !10
  %129 = load ptr, ptr %6, align 8, !tbaa !10
  call void @QuadTree_repulsive_force_accumulate(ptr noundef %127, ptr noundef %128, ptr noundef %129)
  br label %130

130:                                              ; preds = %126, %95
  %131 = load i32, ptr %12, align 4, !tbaa !12
  %132 = add nsw i32 %131, 1
  store i32 %132, ptr %12, align 4, !tbaa !12
  br label %80, !llvm.loop !61

133:                                              ; preds = %80
  store i32 0, ptr %16, align 4
  br label %134

134:                                              ; preds = %133, %78
  call void @llvm.lifetime.end.p0(i64 8, ptr %15) #11
  call void @llvm.lifetime.end.p0(i64 4, ptr %14) #11
  call void @llvm.lifetime.end.p0(i64 4, ptr %13) #11
  call void @llvm.lifetime.end.p0(i64 4, ptr %12) #11
  call void @llvm.lifetime.end.p0(i64 8, ptr %11) #11
  call void @llvm.lifetime.end.p0(i64 8, ptr %10) #11
  call void @llvm.lifetime.end.p0(i64 8, ptr %9) #11
  call void @llvm.lifetime.end.p0(i64 8, ptr %8) #11
  call void @llvm.lifetime.end.p0(i64 8, ptr %7) #11
  %135 = load i32, ptr %16, align 4
  switch i32 %135, label %137 [
    i32 0, label %136
    i32 1, label %136
  ]

136:                                              ; preds = %134, %134
  ret void

137:                                              ; preds = %134
  unreachable
}