; Function Attrs: nofree nounwind uwtable
define internal fastcc void @QuadTree_repulsive_force_accumulate(ptr noundef captures(none) %0, ptr noundef %1, ptr noundef captures(none) %2) unnamed_addr #1 {
  %4 = getelementptr inbounds nuw i8, ptr %0, i64 56
  %5 = load ptr, ptr %4, align 8, !tbaa !37
  %6 = getelementptr inbounds nuw i8, ptr %0, i64 16
  %7 = load i32, ptr %6, align 8, !tbaa !3
  %8 = getelementptr inbounds nuw i8, ptr %0, i64 8
  %9 = load double, ptr %8, align 8, !tbaa !31
  %10 = tail call fastcc ptr @get_or_alloc_force_qt(ptr noundef %0, i32 noundef %7)
  %11 = getelementptr inbounds nuw i8, ptr %2, i64 16
  %12 = load double, ptr %11, align 8, !tbaa !13
  %13 = fadd double %12, 1.000000e+00
  store double %13, ptr %11, align 8, !tbaa !13
  %.not = icmp eq ptr %5, null
  br i1 %.not, label %.preheader, label %.preheader52

.preheader52:                                     ; preds = %3
  %14 = icmp sgt i32 %7, 0
  br i1 %14, label %.preheader52.split.us.preheader, label %.preheader52.split

.preheader52.split.us.preheader:                  ; preds = %.preheader52
  %wide.trip.count = zext nneg i32 %7 to i64
  br label %.preheader52.split.us

.preheader52.split.us:                            ; preds = %.preheader52.split.us.preheader, %._crit_edge.us
  %.04755.us = phi ptr [ %32, %._crit_edge.us ], [ %5, %.preheader52.split.us.preheader ]
  %15 = getelementptr inbounds nuw i8, ptr %.04755.us, i64 24
  %16 = load ptr, ptr %15, align 8, !tbaa !39
  %.not.i.us = icmp eq ptr %16, null
  br i1 %.not.i.us, label %17, label %get_or_assign_node_force.exit.us

17:                                               ; preds = %.preheader52.split.us
  %18 = getelementptr inbounds nuw i8, ptr %.04755.us, i64 16
  %19 = load i32, ptr %18, align 8, !tbaa !19
  %20 = mul nsw i32 %19, %7
  %21 = sext i32 %20 to i64
  %22 = getelementptr inbounds double, ptr %1, i64 %21
  store ptr %22, ptr %15, align 8, !tbaa !39
  br label %get_or_assign_node_force.exit.us

get_or_assign_node_force.exit.us:                 ; preds = %17, %.preheader52.split.us
  %.0.i.us = phi ptr [ %16, %.preheader52.split.us ], [ %22, %17 ]
  %23 = load double, ptr %.04755.us, align 8, !tbaa !25
  %24 = fdiv double %23, %9
  br label %25

25:                                               ; preds = %get_or_assign_node_force.exit.us, %25
  %indvars.iv = phi i64 [ 0, %get_or_assign_node_force.exit.us ], [ %indvars.iv.next, %25 ]
  %26 = getelementptr inbounds nuw double, ptr %10, i64 %indvars.iv
  %27 = load double, ptr %26, align 8, !tbaa !13
  %28 = getelementptr inbounds nuw double, ptr %.0.i.us, i64 %indvars.iv
  %29 = load double, ptr %28, align 8, !tbaa !13
  %30 = tail call double @llvm.fmuladd.f64(double %24, double %27, double %29)
  store double %30, ptr %28, align 8, !tbaa !13
  %indvars.iv.next = add nuw nsw i64 %indvars.iv, 1
  %exitcond.not = icmp eq i64 %indvars.iv.next, %wide.trip.count
  br i1 %exitcond.not, label %._crit_edge.us, label %25, !llvm.loop !50

._crit_edge.us:                                   ; preds = %25
  %31 = getelementptr inbounds nuw i8, ptr %.04755.us, i64 32
  %32 = load ptr, ptr %31, align 8, !tbaa !42
  %.not51.us = icmp eq ptr %32, null
  br i1 %.not51.us, label %.loopexit, label %.preheader52.split.us, !llvm.loop !51

.preheader:                                       ; preds = %3
  %.not60 = icmp eq i32 %7, 31
  br i1 %.not60, label %.loopexit, label %.lr.ph58

.lr.ph58:                                         ; preds = %.preheader
  %33 = shl nuw i32 1, %7
  %34 = getelementptr inbounds nuw i8, ptr %0, i64 48
  %35 = icmp sgt i32 %7, 0
  %smax78 = tail call i32 @llvm.smax.i32(i32 %33, i32 1)
  %wide.trip.count79 = zext nneg i32 %smax78 to i64
  br i1 %35, label %.lr.ph58.split.us.preheader, label %.lr.ph58.split

.lr.ph58.split.us.preheader:                      ; preds = %.lr.ph58
  %wide.trip.count73 = zext nneg i32 %7 to i64
  br label %.lr.ph58.split.us

.lr.ph58.split.us:                                ; preds = %.lr.ph58.split.us.preheader, %49
  %indvars.iv75 = phi i64 [ 0, %.lr.ph58.split.us.preheader ], [ %indvars.iv.next76, %49 ]
  %36 = load ptr, ptr %34, align 8, !tbaa !26
  %37 = getelementptr inbounds nuw ptr, ptr %36, i64 %indvars.iv75
  %38 = load ptr, ptr %37, align 8, !tbaa !32
  %.not50.us = icmp eq ptr %38, null
  br i1 %.not50.us, label %49, label %.lr.ph.us

.lr.ph.us:                                        ; preds = %.lr.ph58.split.us
  %39 = tail call fastcc ptr @get_or_alloc_force_qt(ptr noundef nonnull %38, i32 noundef %7)
  %40 = getelementptr inbounds nuw i8, ptr %38, i64 8
  %41 = load double, ptr %40, align 8, !tbaa !31
  %42 = fdiv double %41, %9
  br label %43

43:                                               ; preds = %.lr.ph.us, %43
  %indvars.iv70 = phi i64 [ 0, %.lr.ph.us ], [ %indvars.iv.next71, %43 ]
  %44 = getelementptr inbounds nuw double, ptr %10, i64 %indvars.iv70
  %45 = load double, ptr %44, align 8, !tbaa !13
  %46 = getelementptr inbounds nuw double, ptr %39, i64 %indvars.iv70
  %47 = load double, ptr %46, align 8, !tbaa !13
  %48 = tail call double @llvm.fmuladd.f64(double %42, double %45, double %47)
  store double %48, ptr %46, align 8, !tbaa !13
  %indvars.iv.next71 = add nuw nsw i64 %indvars.iv70, 1
  %exitcond74.not = icmp eq i64 %indvars.iv.next71, %wide.trip.count73
  br i1 %exitcond74.not, label %._crit_edge.us59, label %43, !llvm.loop !52

49:                                               ; preds = %._crit_edge.us59, %.lr.ph58.split.us
  %indvars.iv.next76 = add nuw nsw i64 %indvars.iv75, 1
  %exitcond80.not = icmp eq i64 %indvars.iv.next76, %wide.trip.count79
  br i1 %exitcond80.not, label %.loopexit, label %.lr.ph58.split.us, !llvm.loop !53

._crit_edge.us59:                                 ; preds = %43
  tail call fastcc void @QuadTree_repulsive_force_accumulate(ptr noundef nonnull %38, ptr noundef %1, ptr noundef %2)
  br label %49

.preheader52.split:                               ; preds = %.preheader52, %get_or_assign_node_force.exit
  %.04755 = phi ptr [ %59, %get_or_assign_node_force.exit ], [ %5, %.preheader52 ]
  %50 = getelementptr inbounds nuw i8, ptr %.04755, i64 24
  %51 = load ptr, ptr %50, align 8, !tbaa !39
  %.not.i = icmp eq ptr %51, null
  br i1 %.not.i, label %52, label %get_or_assign_node_force.exit

52:                                               ; preds = %.preheader52.split
  %53 = getelementptr inbounds nuw i8, ptr %.04755, i64 16
  %54 = load i32, ptr %53, align 8, !tbaa !19
  %55 = mul nsw i32 %54, %7
  %56 = sext i32 %55 to i64
  %57 = getelementptr inbounds double, ptr %1, i64 %56
  store ptr %57, ptr %50, align 8, !tbaa !39
  br label %get_or_assign_node_force.exit

get_or_assign_node_force.exit:                    ; preds = %.preheader52.split, %52
  %58 = getelementptr inbounds nuw i8, ptr %.04755, i64 32
  %59 = load ptr, ptr %58, align 8, !tbaa !42
  %.not51 = icmp eq ptr %59, null
  br i1 %.not51, label %.loopexit, label %.preheader52.split, !llvm.loop !51

.lr.ph58.split:                                   ; preds = %.lr.ph58, %65
  %indvars.iv65 = phi i64 [ %indvars.iv.next66, %65 ], [ 0, %.lr.ph58 ]
  %60 = load ptr, ptr %34, align 8, !tbaa !26
  %61 = getelementptr inbounds nuw ptr, ptr %60, i64 %indvars.iv65
  %62 = load ptr, ptr %61, align 8, !tbaa !32
  %.not50 = icmp eq ptr %62, null
  br i1 %.not50, label %65, label %63

63:                                               ; preds = %.lr.ph58.split
  %64 = tail call fastcc ptr @get_or_alloc_force_qt(ptr noundef nonnull %62, i32 noundef %7)
  tail call fastcc void @QuadTree_repulsive_force_accumulate(ptr noundef nonnull %62, ptr noundef %1, ptr noundef %2)
  br label %65

65:                                               ; preds = %.lr.ph58.split, %63
  %indvars.iv.next66 = add nuw nsw i64 %indvars.iv65, 1
  %exitcond69.not = icmp eq i64 %indvars.iv.next66, %wide.trip.count79
  br i1 %exitcond69.not, label %.loopexit, label %.lr.ph58.split, !llvm.loop !53

.loopexit:                                        ; preds = %get_or_assign_node_force.exit, %._crit_edge.us, %65, %49, %.preheader
  ret void
}